target datalayout = "e-m:e-p270:32:32-p271:32:32-p272:64:64-i64:64-i128:128-f80:128-n8:16:32:64-S128"
target triple = "x86_64-pc-linux-gnu"

; Function Attrs: nounwind uwtable
define internal void @SDL_Convert61ToQuad(ptr noundef %0, ptr noundef %1, i32 noundef %2) #0 {
  %4 = alloca ptr, align 8
  %5 = alloca ptr, align 8
  %6 = alloca i32, align 4
  %7 = alloca i32, align 4
  %8 = alloca float, align 4
  %9 = alloca float, align 4
  %10 = alloca float, align 4
  %11 = alloca float, align 4
  %12 = alloca float, align 4
  store ptr %0, ptr %4, align 8
  store ptr %1, ptr %5, align 8
  store i32 %2, ptr %6, align 4
  call void @llvm.lifetime.start.p0(i64 4, ptr %7) #7
  %13 = load i32, ptr %6, align 4
  store i32 %13, ptr %7, align 4
  br label %14

14:                                               ; preds = %73, %3
  %15 = load i32, ptr %7, align 4
  %16 = icmp ne i32 %15, 0
  br i1 %16, label %17, label %80

17:                                               ; preds = %14
  call void @llvm.lifetime.start.p0(i64 4, ptr %8) #7
  %18 = load ptr, ptr %5, align 8
  %19 = getelementptr inbounds float, ptr %18, i64 2
  %20 = load float, ptr %19, align 4
  store float %20, ptr %8, align 4
  call void @llvm.lifetime.start.p0(i64 4, ptr %9) #7
  %21 = load ptr, ptr %5, align 8
  %22 = getelementptr inbounds float, ptr %21, i64 3
  %23 = load float, ptr %22, align 4
  store float %23, ptr %9, align 4
  call void @llvm.lifetime.start.p0(i64 4, ptr %10) #7
  %24 = load ptr, ptr %5, align 8
  %25 = getelementptr inbounds float, ptr %24, i64 4
  %26 = load float, ptr %25, align 4
  store float %26, ptr %10, align 4
  call void @llvm.lifetime.start.p0(i64 4, ptr %11) #7
  %27 = load ptr, ptr %5, align 8
  %28 = getelementptr inbounds float, ptr %27, i64 5
  %29 = load float, ptr %28, align 4
  store float %29, ptr %11, align 4
  call void @llvm.lifetime.start.p0(i64 4, ptr %12) #7
  %30 = load ptr, ptr %5, align 8
  %31 = getelementptr inbounds float, ptr %30, i64 6
  %32 = load float, ptr %31, align 4
  store float %32, ptr %12, align 4
  %33 = load ptr, ptr %5, align 8
  %34 = getelementptr inbounds float, ptr %33, i64 0
  %35 = load float, ptr %34, align 4
  %36 = load float, ptr %8, align 4
  %37 = fmul float %36, 0x3FD4F37760000000
  %38 = call float @llvm.fmuladd.f32(float %35, float 0x3FDDACEEE0000000, float %37)
  %39 = load float, ptr %9, align 4
  %40 = call float @llvm.fmuladd.f32(float %39, float 0x3FA47AE160000000, float %38)
  %41 = load float, ptr %11, align 4
  %42 = call float @llvm.fmuladd.f32(float %41, float 0x3FC5A07B40000000, float %40)
  %43 = load ptr, ptr %4, align 8
  %44 = getelementptr inbounds float, ptr %43, i64 0
  store float %42, ptr %44, align 4
  %45 = load ptr, ptr %5, align 8
  %46 = getelementptr inbounds float, ptr %45, i64 1
  %47 = load float, ptr %46, align 4
  %48 = load float, ptr %8, align 4
  %49 = fmul float %48, 0x3FD4F37760000000
  %50 = call float @llvm.fmuladd.f32(float %47, float 0x3FDDACEEE0000000, float %49)
  %51 = load float, ptr %9, align 4
  %52 = call float @llvm.fmuladd.f32(float %51, float 0x3FA47AE160000000, float %50)
  %53 = load float, ptr %12, align 4
  %54 = call float @llvm.fmuladd.f32(float %53, float 0x3FC5A07B40000000, float %52)
  %55 = load ptr, ptr %4, align 8
  %56 = getelementptr inbounds float, ptr %55, i64 1
  store float %54, ptr %56, align 4
  %57 = load float, ptr %9, align 4
  %58 = load float, ptr %10, align 4
  %59 = fmul float %58, 0x3FD4F37760000000
  %60 = call float @llvm.fmuladd.f32(float %57, float 0x3FA47AE160000000, float %59)
  %61 = load float, ptr %11, align 4
  %62 = call float @llvm.fmuladd.f32(float %61, float 0x3FDB9628C0000000, float %60)
  %63 = load ptr, ptr %4, align 8
  %64 = getelementptr inbounds float, ptr %63, i64 2
  store float %62, ptr %64, align 4
  %65 = load float, ptr %9, align 4
  %66 = load float, ptr %10, align 4
  %67 = fmul float %66, 0x3FD4F37760000000
  %68 = call float @llvm.fmuladd.f32(float %65, float 0x3FA47AE160000000, float %67)
  %69 = load float, ptr %12, align 4
  %70 = call float @llvm.fmuladd.f32(float %69, float 0x3FDB9628C0000000, float %68)
  %71 = load ptr, ptr %4, align 8
  %72 = getelementptr inbounds float, ptr %71, i64 3
  store float %70, ptr %72, align 4
  call void @llvm.lifetime.end.p0(i64 4, ptr %12) #7
  call void @llvm.lifetime.end.p0(i64 4, ptr %11) #7
  call void @llvm.lifetime.end.p0(i64 4, ptr %10) #7
  call void @llvm.lifetime.end.p0(i64 4, ptr %9) #7
  call void @llvm.lifetime.end.p0(i64 4, ptr %8) #7
  br label %73

73:                                               ; preds = %17
  %74 = load i32, ptr %7, align 4
  %75 = add nsw i32 %74, -1
  store i32 %75, ptr %7, align 4
  %76 = load ptr, ptr %5, align 8
  %77 = getelementptr inbounds float, ptr %76, i64 7
  store ptr %77, ptr %5, align 8
  %78 = load ptr, ptr %4, align 8
  %79 = getelementptr inbounds float, ptr %78, i64 4
  store ptr %79, ptr %4, align 8
  br label %14, !llvm.loop !89

80:                                               ; preds = %14
  call void @llvm.lifetime.end.p0(i64 4, ptr %7) #7
  ret void
}