; Function Attrs: nofree norecurse nosync nounwind memory(argmem: readwrite) uwtable
define internal void @SDL_Convert61ToQuad(ptr noundef writeonly captures(none) %0, ptr noundef readonly captures(none) %1, i32 noundef %2) #5 {
  %.not29 = icmp eq i32 %2, 0
  br i1 %.not29, label %._crit_edge, label %.lr.ph

.lr.ph:                                           ; preds = %3, %.lr.ph
  %.032 = phi ptr [ %33, %.lr.ph ], [ %0, %3 ]
  %.02731 = phi ptr [ %32, %.lr.ph ], [ %1, %3 ]
  %.02830 = phi i32 [ %31, %.lr.ph ], [ %2, %3 ]
  %4 = getelementptr inbounds nuw i8, ptr %.02731, i64 8
  %5 = load float, ptr %4, align 4
  %6 = getelementptr inbounds nuw i8, ptr %.02731, i64 12
  %7 = load float, ptr %6, align 4
  %8 = getelementptr inbounds nuw i8, ptr %.02731, i64 16
  %9 = load float, ptr %8, align 4
  %10 = getelementptr inbounds nuw i8, ptr %.02731, i64 20
  %11 = load float, ptr %10, align 4
  %12 = getelementptr inbounds nuw i8, ptr %.02731, i64 24
  %13 = load float, ptr %12, align 4
  %14 = load float, ptr %.02731, align 4
  %15 = fmul float %5, 0x3FD4F37760000000
  %16 = tail call float @llvm.fmuladd.f32(float %14, float 0x3FDDACEEE0000000, float %15)
  %17 = tail call float @llvm.fmuladd.f32(float %7, float 0x3FA47AE160000000, float %16)
  %18 = tail call float @llvm.fmuladd.f32(float %11, float 0x3FC5A07B40000000, float %17)
  store float %18, ptr %.032, align 4
  %19 = getelementptr inbounds nuw i8, ptr %.02731, i64 4
  %20 = load float, ptr %19, align 4
  %21 = tail call float @llvm.fmuladd.f32(float %20, float 0x3FDDACEEE0000000, float %15)
  %22 = tail call float @llvm.fmuladd.f32(float %7, float 0x3FA47AE160000000, float %21)
  %23 = tail call float @llvm.fmuladd.f32(float %13, float 0x3FC5A07B40000000, float %22)
  %24 = getelementptr inbounds nuw i8, ptr %.032, i64 4
  store float %23, ptr %24, align 4
  %25 = fmul float %9, 0x3FD4F37760000000
  %26 = tail call float @llvm.fmuladd.f32(float %7, float 0x3FA47AE160000000, float %25)
  %27 = tail call float @llvm.fmuladd.f32(float %11, float 0x3FDB9628C0000000, float %26)
  %28 = getelementptr inbounds nuw i8, ptr %.032, i64 8
  store float %27, ptr %28, align 4
  %29 = tail call float @llvm.fmuladd.f32(float %13, float 0x3FDB9628C0000000, float %26)
  %30 = getelementptr inbounds nuw i8, ptr %.032, i64 12
  store float %29, ptr %30, align 4
  %31 = add nsw i32 %.02830, -1
  %32 = getelementptr inbounds nuw i8, ptr %.02731, i64 28
  %33 = getelementptr inbounds nuw i8, ptr %.032, i64 16
  %.not = icmp eq i32 %31, 0
  br i1 %.not, label %._crit_edge, label %.lr.ph, !llvm.loop !95

._crit_edge:                                      ; preds = %.lr.ph, %3
  ret void
}